SF:D:\dev\github\test_panic\src\funcs.rs
FN:27,_RINvNtCscwoqWTEVPPB_10test_panic5funcs10test_panicNCNvCscBDYLlYNryd_2its_16with_multi_tests0lEBQ_
FN:27,_RINvNtCscwoqWTEVPPB_10test_panic5funcs10test_panicNCNvNtCscBDYLlYNryd_2it5funcss_14with_cool_void0uEBS_
FN:27,_RINvNtCscwoqWTEVPPB_10test_panic5funcs10test_panicNCNvNtCscBDYLlYNryd_2it5funcss_14with_panic_any0zEBS_
FN:27,_RINvNtCscwoqWTEVPPB_10test_panic5funcs10test_panicNCNvNtCscBDYLlYNryd_2it5funcss_14with_panic_str0zEBS_
FN:27,_RINvNtCscwoqWTEVPPB_10test_panic5funcs10test_panicNCNvNtCscBDYLlYNryd_2it5funcss_16with_cool_return0ReEBS_
FN:27,_RINvNtCscwoqWTEVPPB_10test_panic5funcs10test_panicNCNvNtCscBDYLlYNryd_2it5funcss_16with_panic_empty0zEBS_
FN:27,_RINvNtCscwoqWTEVPPB_10test_panic5funcs10test_panicNCNvNtCscBDYLlYNryd_2it5funcss_17with_panic_string0zEBS_
FN:51,_RINvNtCscwoqWTEVPPB_10test_panic5funcs2nglECscBDYLlYNryd_2it
FN:46,_RINvNtCscwoqWTEVPPB_10test_panic5funcs2oklECscBDYLlYNryd_2it
FN:56,_RINvNtCscwoqWTEVPPB_10test_panic5funcs3msglReECscBDYLlYNryd_2it
FN:32,_RNCINvNtCscwoqWTEVPPB_10test_panic5funcs10test_panicNCNvCscBDYLlYNryd_2its_16with_multi_tests0lE0BS_
FN:32,_RNCINvNtCscwoqWTEVPPB_10test_panic5funcs10test_panicNCNvNtCscBDYLlYNryd_2it5funcss_14with_cool_void0uE0BU_
FN:32,_RNCINvNtCscwoqWTEVPPB_10test_panic5funcs10test_panicNCNvNtCscBDYLlYNryd_2it5funcss_14with_panic_any0zE0BU_
FN:32,_RNCINvNtCscwoqWTEVPPB_10test_panic5funcs10test_panicNCNvNtCscBDYLlYNryd_2it5funcss_14with_panic_str0zE0BU_
FN:32,_RNCINvNtCscwoqWTEVPPB_10test_panic5funcs10test_panicNCNvNtCscBDYLlYNryd_2it5funcss_16with_cool_return0ReE0BU_
FN:32,_RNCINvNtCscwoqWTEVPPB_10test_panic5funcs10test_panicNCNvNtCscBDYLlYNryd_2it5funcss_16with_panic_empty0zE0BU_
FN:32,_RNCINvNtCscwoqWTEVPPB_10test_panic5funcs10test_panicNCNvNtCscBDYLlYNryd_2it5funcss_17with_panic_string0zE0BU_
FN:27,_RINvNtCsk0rxgbnlf2M_10test_panic5funcs10test_panicppEB4_
FN:51,_RINvNtCsk0rxgbnlf2M_10test_panic5funcs2ngpEB4_
FN:46,_RINvNtCsk0rxgbnlf2M_10test_panic5funcs2okpEB4_
FN:56,_RINvNtCsk0rxgbnlf2M_10test_panic5funcs3msgppEB4_
FN:32,_RNCINvNtCsk0rxgbnlf2M_10test_panic5funcs10test_panicppE0B6_
FNDA:3,_RINvNtCscwoqWTEVPPB_10test_panic5funcs10test_panicNCNvCscBDYLlYNryd_2its_16with_multi_tests0lEBQ_
FNDA:1,_RINvNtCscwoqWTEVPPB_10test_panic5funcs10test_panicNCNvNtCscBDYLlYNryd_2it5funcss_14with_cool_void0uEBS_
FNDA:1,_RINvNtCscwoqWTEVPPB_10test_panic5funcs10test_panicNCNvNtCscBDYLlYNryd_2it5funcss_14with_panic_any0zEBS_
FNDA:1,_RINvNtCscwoqWTEVPPB_10test_panic5funcs10test_panicNCNvNtCscBDYLlYNryd_2it5funcss_14with_panic_str0zEBS_
FNDA:1,_RINvNtCscwoqWTEVPPB_10test_panic5funcs10test_panicNCNvNtCscBDYLlYNryd_2it5funcss_16with_cool_return0ReEBS_
FNDA:1,_RINvNtCscwoqWTEVPPB_10test_panic5funcs10test_panicNCNvNtCscBDYLlYNryd_2it5funcss_16with_panic_empty0zEBS_
FNDA:1,_RINvNtCscwoqWTEVPPB_10test_panic5funcs10test_panicNCNvNtCscBDYLlYNryd_2it5funcss_17with_panic_string0zEBS_
FNDA:1,_RINvNtCscwoqWTEVPPB_10test_panic5funcs2nglECscBDYLlYNryd_2it
FNDA:1,_RINvNtCscwoqWTEVPPB_10test_panic5funcs2oklECscBDYLlYNryd_2it
FNDA:1,_RINvNtCscwoqWTEVPPB_10test_panic5funcs3msglReECscBDYLlYNryd_2it
FNDA:2,_RNCINvNtCscwoqWTEVPPB_10test_panic5funcs10test_panicNCNvCscBDYLlYNryd_2its_16with_multi_tests0lE0BS_
FNDA:0,_RNCINvNtCscwoqWTEVPPB_10test_panic5funcs10test_panicNCNvNtCscBDYLlYNryd_2it5funcss_14with_cool_void0uE0BU_
FNDA:1,_RNCINvNtCscwoqWTEVPPB_10test_panic5funcs10test_panicNCNvNtCscBDYLlYNryd_2it5funcss_14with_panic_any0zE0BU_
FNDA:1,_RNCINvNtCscwoqWTEVPPB_10test_panic5funcs10test_panicNCNvNtCscBDYLlYNryd_2it5funcss_14with_panic_str0zE0BU_
FNDA:0,_RNCINvNtCscwoqWTEVPPB_10test_panic5funcs10test_panicNCNvNtCscBDYLlYNryd_2it5funcss_16with_cool_return0ReE0BU_
FNDA:1,_RNCINvNtCscwoqWTEVPPB_10test_panic5funcs10test_panicNCNvNtCscBDYLlYNryd_2it5funcss_16with_panic_empty0zE0BU_
FNDA:1,_RNCINvNtCscwoqWTEVPPB_10test_panic5funcs10test_panicNCNvNtCscBDYLlYNryd_2it5funcss_17with_panic_string0zE0BU_
FNDA:0,_RINvNtCsk0rxgbnlf2M_10test_panic5funcs10test_panicppEB4_
FNDA:0,_RINvNtCsk0rxgbnlf2M_10test_panic5funcs2ngpEB4_
FNDA:0,_RINvNtCsk0rxgbnlf2M_10test_panic5funcs2okpEB4_
FNDA:0,_RINvNtCsk0rxgbnlf2M_10test_panic5funcs3msgppEB4_
FNDA:0,_RNCINvNtCsk0rxgbnlf2M_10test_panic5funcs10test_panicppE0B6_
FNF:5
FNH:5
DA:27,9
DA:28,9
DA:29,9
DA:31,9
DA:32,9
DA:34,9
DA:35,9
DA:36,9
DA:38,9
DA:39,6
DA:40,3
DA:42,3
DA:43,9
DA:46,1
DA:47,1
DA:48,1
DA:51,1
DA:52,1
DA:53,1
DA:56,1
DA:57,1
DA:58,1
DA:60,1
DA:61,1
BRF:0
BRH:0
LF:25
LH:25
end_of_record
SF:D:\dev\github\test_panic\src\test_panic_result.rs
FN:30,_RNvMNtCscwoqWTEVPPB_10test_panic17test_panic_resultINtB2_15TestPanicResultReE4coolCscBDYLlYNryd_2it
FN:51,_RNvMNtCscwoqWTEVPPB_10test_panic17test_panic_resultINtB2_15TestPanicResultReE5valueCscBDYLlYNryd_2it
FN:19,_RNvMNtCscwoqWTEVPPB_10test_panic17test_panic_resultINtB2_15TestPanicResultReE7is_coolCscBDYLlYNryd_2it
FN:25,_RNvMNtCscwoqWTEVPPB_10test_panic17test_panic_resultINtB2_15TestPanicResultReE8is_panicCscBDYLlYNryd_2it
FN:91,_RNvMNtCscwoqWTEVPPB_10test_panic17test_panic_resultINtB2_15TestPanicResultlE11get_messageCscBDYLlYNryd_2it
FN:51,_RNvMNtCscwoqWTEVPPB_10test_panic17test_panic_resultINtB2_15TestPanicResultlE5valueCscBDYLlYNryd_2it
FN:19,_RNvMNtCscwoqWTEVPPB_10test_panic17test_panic_resultINtB2_15TestPanicResultlE7is_coolCscBDYLlYNryd_2it
FN:64,_RNvMNtCscwoqWTEVPPB_10test_panic17test_panic_resultINtB2_15TestPanicResultlE7payloadCscBDYLlYNryd_2it
FN:105,_RNvMNtCscwoqWTEVPPB_10test_panic17test_panic_resultINtB2_15TestPanicResultlE9almost_eqCscBDYLlYNryd_2it
FN:122,_RNvMNtCscwoqWTEVPPB_10test_panic17test_panic_resultINtB2_15TestPanicResultlE9nearly_eqCscBDYLlYNryd_2it
FN:91,_RNvMNtCscwoqWTEVPPB_10test_panic17test_panic_resultINtB2_15TestPanicResultuE11get_messageCscBDYLlYNryd_2it
FN:30,_RNvMNtCscwoqWTEVPPB_10test_panic17test_panic_resultINtB2_15TestPanicResultuE4coolCscBDYLlYNryd_2it
FN:38,_RNvMNtCscwoqWTEVPPB_10test_panic17test_panic_resultINtB2_15TestPanicResultuE5panicCscBDYLlYNryd_2it
FN:51,_RNvMNtCscwoqWTEVPPB_10test_panic17test_panic_resultINtB2_15TestPanicResultuE5valueCscBDYLlYNryd_2it
FN:19,_RNvMNtCscwoqWTEVPPB_10test_panic17test_panic_resultINtB2_15TestPanicResultuE7is_coolCscBDYLlYNryd_2it
FN:78,_RNvMNtCscwoqWTEVPPB_10test_panic17test_panic_resultINtB2_15TestPanicResultuE7messageCscBDYLlYNryd_2it
FN:64,_RNvMNtCscwoqWTEVPPB_10test_panic17test_panic_resultINtB2_15TestPanicResultuE7payloadCscBDYLlYNryd_2it
FN:25,_RNvMNtCscwoqWTEVPPB_10test_panic17test_panic_resultINtB2_15TestPanicResultuE8is_panicCscBDYLlYNryd_2it
FN:105,_RNvMNtCscwoqWTEVPPB_10test_panic17test_panic_resultINtB2_15TestPanicResultuE9almost_eqCscBDYLlYNryd_2it
FN:122,_RNvMNtCscwoqWTEVPPB_10test_panic17test_panic_resultINtB2_15TestPanicResultuE9nearly_eqCscBDYLlYNryd_2it
FN:91,_RNvMNtCscwoqWTEVPPB_10test_panic17test_panic_resultINtB2_15TestPanicResultzE11get_messageCscBDYLlYNryd_2it
FN:38,_RNvMNtCscwoqWTEVPPB_10test_panic17test_panic_resultINtB2_15TestPanicResultzE5panicCscBDYLlYNryd_2it
FN:19,_RNvMNtCscwoqWTEVPPB_10test_panic17test_panic_resultINtB2_15TestPanicResultzE7is_coolCscBDYLlYNryd_2it
FN:78,_RNvMNtCscwoqWTEVPPB_10test_panic17test_panic_resultINtB2_15TestPanicResultzE7messageCscBDYLlYNryd_2it
FN:64,_RNvMNtCscwoqWTEVPPB_10test_panic17test_panic_resultINtB2_15TestPanicResultzE7payloadCscBDYLlYNryd_2it
FN:25,_RNvMNtCscwoqWTEVPPB_10test_panic17test_panic_resultINtB2_15TestPanicResultzE8is_panicCscBDYLlYNryd_2it
FN:151,_RNvXs0_NtCscwoqWTEVPPB_10test_panic17test_panic_resultINtB5_15TestPanicResultlENtNtCs6joXTnudZij_4core3cmp9PartialEq2eqCscBDYLlYNryd_2it
FN:151,_RNvXs0_NtCscwoqWTEVPPB_10test_panic17test_panic_resultINtB5_15TestPanicResultuENtNtCs6joXTnudZij_4core3cmp9PartialEq2eqCscBDYLlYNryd_2it
FN:91,_RNvMNtCsk0rxgbnlf2M_10test_panic17test_panic_resultINtB2_15TestPanicResultpE11get_messageB4_
FN:30,_RNvMNtCsk0rxgbnlf2M_10test_panic17test_panic_resultINtB2_15TestPanicResultpE4coolB4_
FN:38,_RNvMNtCsk0rxgbnlf2M_10test_panic17test_panic_resultINtB2_15TestPanicResultpE5panicB4_
FN:51,_RNvMNtCsk0rxgbnlf2M_10test_panic17test_panic_resultINtB2_15TestPanicResultpE5valueB4_
FN:19,_RNvMNtCsk0rxgbnlf2M_10test_panic17test_panic_resultINtB2_15TestPanicResultpE7is_coolB4_
FN:78,_RNvMNtCsk0rxgbnlf2M_10test_panic17test_panic_resultINtB2_15TestPanicResultpE7messageB4_
FN:64,_RNvMNtCsk0rxgbnlf2M_10test_panic17test_panic_resultINtB2_15TestPanicResultpE7payloadB4_
FN:25,_RNvMNtCsk0rxgbnlf2M_10test_panic17test_panic_resultINtB2_15TestPanicResultpE8is_panicB4_
FN:105,_RNvMNtCsk0rxgbnlf2M_10test_panic17test_panic_resultINtB2_15TestPanicResultpE9almost_eqB4_
FN:122,_RNvMNtCsk0rxgbnlf2M_10test_panic17test_panic_resultINtB2_15TestPanicResultpE9nearly_eqB4_
FN:151,_RNvXININtCsk0rxgbnlf2M_10test_panic17test_panic_results0_0pEINtB5_15TestPanicResultpENtNtCs6joXTnudZij_4core3cmp9PartialEq2eqB7_
FNDA:2,_RNvMNtCscwoqWTEVPPB_10test_panic17test_panic_resultINtB2_15TestPanicResultReE4coolCscBDYLlYNryd_2it
FNDA:1,_RNvMNtCscwoqWTEVPPB_10test_panic17test_panic_resultINtB2_15TestPanicResultReE5valueCscBDYLlYNryd_2it
FNDA:1,_RNvMNtCscwoqWTEVPPB_10test_panic17test_panic_resultINtB2_15TestPanicResultReE7is_coolCscBDYLlYNryd_2it
FNDA:1,_RNvMNtCscwoqWTEVPPB_10test_panic17test_panic_resultINtB2_15TestPanicResultReE8is_panicCscBDYLlYNryd_2it
FNDA:7,_RNvMNtCscwoqWTEVPPB_10test_panic17test_panic_resultINtB2_15TestPanicResultlE11get_messageCscBDYLlYNryd_2it
FNDA:1,_RNvMNtCscwoqWTEVPPB_10test_panic17test_panic_resultINtB2_15TestPanicResultlE5valueCscBDYLlYNryd_2it
FNDA:7,_RNvMNtCscwoqWTEVPPB_10test_panic17test_panic_resultINtB2_15TestPanicResultlE7is_coolCscBDYLlYNryd_2it
FNDA:4,_RNvMNtCscwoqWTEVPPB_10test_panic17test_panic_resultINtB2_15TestPanicResultlE7payloadCscBDYLlYNryd_2it
FNDA:5,_RNvMNtCscwoqWTEVPPB_10test_panic17test_panic_resultINtB2_15TestPanicResultlE9almost_eqCscBDYLlYNryd_2it
FNDA:6,_RNvMNtCscwoqWTEVPPB_10test_panic17test_panic_resultINtB2_15TestPanicResultlE9nearly_eqCscBDYLlYNryd_2it
FNDA:21,_RNvMNtCscwoqWTEVPPB_10test_panic17test_panic_resultINtB2_15TestPanicResultuE11get_messageCscBDYLlYNryd_2it
FNDA:2,_RNvMNtCscwoqWTEVPPB_10test_panic17test_panic_resultINtB2_15TestPanicResultuE4coolCscBDYLlYNryd_2it
FNDA:2,_RNvMNtCscwoqWTEVPPB_10test_panic17test_panic_resultINtB2_15TestPanicResultuE5panicCscBDYLlYNryd_2it
FNDA:1,_RNvMNtCscwoqWTEVPPB_10test_panic17test_panic_resultINtB2_15TestPanicResultuE5valueCscBDYLlYNryd_2it
FNDA:27,_RNvMNtCscwoqWTEVPPB_10test_panic17test_panic_resultINtB2_15TestPanicResultuE7is_coolCscBDYLlYNryd_2it
FNDA:3,_RNvMNtCscwoqWTEVPPB_10test_panic17test_panic_resultINtB2_15TestPanicResultuE7messageCscBDYLlYNryd_2it
FNDA:23,_RNvMNtCscwoqWTEVPPB_10test_panic17test_panic_resultINtB2_15TestPanicResultuE7payloadCscBDYLlYNryd_2it
FNDA:3,_RNvMNtCscwoqWTEVPPB_10test_panic17test_panic_resultINtB2_15TestPanicResultuE8is_panicCscBDYLlYNryd_2it
FNDA:5,_RNvMNtCscwoqWTEVPPB_10test_panic17test_panic_resultINtB2_15TestPanicResultuE9almost_eqCscBDYLlYNryd_2it
FNDA:4,_RNvMNtCscwoqWTEVPPB_10test_panic17test_panic_resultINtB2_15TestPanicResultuE9nearly_eqCscBDYLlYNryd_2it
FNDA:3,_RNvMNtCscwoqWTEVPPB_10test_panic17test_panic_resultINtB2_15TestPanicResultzE11get_messageCscBDYLlYNryd_2it
FNDA:4,_RNvMNtCscwoqWTEVPPB_10test_panic17test_panic_resultINtB2_15TestPanicResultzE5panicCscBDYLlYNryd_2it
FNDA:10,_RNvMNtCscwoqWTEVPPB_10test_panic17test_panic_resultINtB2_15TestPanicResultzE7is_coolCscBDYLlYNryd_2it
FNDA:3,_RNvMNtCscwoqWTEVPPB_10test_panic17test_panic_resultINtB2_15TestPanicResultzE7messageCscBDYLlYNryd_2it
FNDA:7,_RNvMNtCscwoqWTEVPPB_10test_panic17test_panic_resultINtB2_15TestPanicResultzE7payloadCscBDYLlYNryd_2it
FNDA:4,_RNvMNtCscwoqWTEVPPB_10test_panic17test_panic_resultINtB2_15TestPanicResultzE8is_panicCscBDYLlYNryd_2it
FNDA:5,_RNvXs0_NtCscwoqWTEVPPB_10test_panic17test_panic_resultINtB5_15TestPanicResultlENtNtCs6joXTnudZij_4core3cmp9PartialEq2eqCscBDYLlYNryd_2it
FNDA:6,_RNvXs0_NtCscwoqWTEVPPB_10test_panic17test_panic_resultINtB5_15TestPanicResultuENtNtCs6joXTnudZij_4core3cmp9PartialEq2eqCscBDYLlYNryd_2it
FNDA:0,_RNvMNtCsk0rxgbnlf2M_10test_panic17test_panic_resultINtB2_15TestPanicResultpE11get_messageB4_
FNDA:0,_RNvMNtCsk0rxgbnlf2M_10test_panic17test_panic_resultINtB2_15TestPanicResultpE4coolB4_
FNDA:0,_RNvMNtCsk0rxgbnlf2M_10test_panic17test_panic_resultINtB2_15TestPanicResultpE5panicB4_
FNDA:0,_RNvMNtCsk0rxgbnlf2M_10test_panic17test_panic_resultINtB2_15TestPanicResultpE5valueB4_
FNDA:0,_RNvMNtCsk0rxgbnlf2M_10test_panic17test_panic_resultINtB2_15TestPanicResultpE7is_coolB4_
FNDA:0,_RNvMNtCsk0rxgbnlf2M_10test_panic17test_panic_resultINtB2_15TestPanicResultpE7messageB4_
FNDA:0,_RNvMNtCsk0rxgbnlf2M_10test_panic17test_panic_resultINtB2_15TestPanicResultpE7payloadB4_
FNDA:0,_RNvMNtCsk0rxgbnlf2M_10test_panic17test_panic_resultINtB2_15TestPanicResultpE8is_panicB4_
FNDA:0,_RNvMNtCsk0rxgbnlf2M_10test_panic17test_panic_resultINtB2_15TestPanicResultpE9almost_eqB4_
FNDA:0,_RNvMNtCsk0rxgbnlf2M_10test_panic17test_panic_resultINtB2_15TestPanicResultpE9nearly_eqB4_
FNDA:0,_RNvXININtCsk0rxgbnlf2M_10test_panic17test_panic_results0_0pEINtB5_15TestPanicResultpENtNtCs6joXTnudZij_4core3cmp9PartialEq2eqB7_
FNF:11
FNH:11
DA:19,45
DA:20,45
DA:21,45
DA:25,8
DA:26,8
DA:27,8
DA:30,4
DA:31,4
DA:32,3
DA:33,1
DA:35,4
DA:38,6
DA:39,6
DA:40,1
DA:41,5
DA:43,6
DA:51,3
DA:52,3
DA:53,2
DA:54,1
DA:56,2
DA:64,34
DA:65,34
DA:66,1
DA:67,33
DA:69,33
DA:78,6
DA:79,6
DA:80,1
DA:81,5
DA:83,5
DA:84,1
DA:85,4
DA:87,4
DA:91,31
DA:92,31
DA:93,3
DA:94,28
DA:96,28
DA:97,31
DA:105,10
DA:106,10
DA:107,10
DA:109,10
DA:110,6
DA:112,4
DA:114,10
DA:122,10
DA:123,10
DA:124,10
DA:126,10
DA:127,5
DA:128,4
DA:129,1
DA:131,10
DA:151,11
DA:152,11
DA:153,2
DA:154,7
DA:155,2
DA:157,11
BRF:0
BRH:0
LF:61
LH:59
end_of_record
SF:D:\dev\github\test_panic\src\util.rs
FN:6,_RNvNtCscwoqWTEVPPB_10test_panic4util21string_like_to_string
FN:6,_RNvNtCsk0rxgbnlf2M_10test_panic4util21string_like_to_string
FNDA:28,_RNvNtCscwoqWTEVPPB_10test_panic4util21string_like_to_string
FNDA:0,_RNvNtCsk0rxgbnlf2M_10test_panic4util21string_like_to_string
FNF:1
FNH:1
DA:6,28
DA:7,28
DA:8,19
DA:9,9
DA:11,9
DA:12,1
DA:13,8
DA:15,8
DA:16,28
BRF:0
BRH:0
LF:9
LH:9
end_of_record